target datalayout = "e-m:e-p270:32:32-p271:32:32-p272:64:64-i64:64-i128:128-f80:128-n8:16:32:64-S128"
target triple = "x86_64-pc-linux-gnu"

%struct.AVFilterContext = type { ptr, ptr, ptr, ptr, ptr, i32, ptr, ptr, i32, ptr, ptr, i32, i32, ptr, ptr, ptr, ptr, i32, ptr, i32, i32 }
%struct.BilateralContext = type { ptr, float, float, i32, i32, i32, i32, [4 x i32], [4 x i32], float, [65536 x float], [4 x ptr], [4 x ptr], [4 x ptr], [4 x ptr], [4 x ptr], [4 x ptr], [4 x ptr], [4 x ptr] }

; Function Attrs: nounwind uwtable
define internal i32 @config_params(ptr noundef %0) #1 {
  %2 = alloca ptr, align 8
  %3 = alloca ptr, align 8
  %4 = alloca float, align 4
  %5 = alloca i32, align 4
  store ptr %0, ptr %2, align 8, !tbaa !4
  call void @llvm.lifetime.start.p0(i64 8, ptr %3) #8
  %6 = load ptr, ptr %2, align 8, !tbaa !4
  %7 = getelementptr inbounds nuw %struct.AVFilterContext, ptr %6, i32 0, i32 9
  %8 = load ptr, ptr %7, align 8, !tbaa !9
  store ptr %8, ptr %3, align 8, !tbaa !22
  call void @llvm.lifetime.start.p0(i64 4, ptr %4) #8
  %9 = load ptr, ptr %3, align 8, !tbaa !22
  %10 = getelementptr inbounds nuw %struct.BilateralContext, ptr %9, i32 0, i32 2
  %11 = load float, ptr %10, align 4, !tbaa !99
  %12 = load ptr, ptr %3, align 8, !tbaa !22
  %13 = getelementptr inbounds nuw %struct.BilateralContext, ptr %12, i32 0, i32 6
  %14 = load i32, ptr %13, align 4, !tbaa !55
  %15 = shl i32 1, %14
  %16 = sub nsw i32 %15, 1
  %17 = sitofp i32 %16 to float
  %18 = fmul nsz float %11, %17
  %19 = fdiv nsz float 1.000000e+00, %18
  store float %19, ptr %4, align 4, !tbaa !71
  %20 = call nsz float @llvm.sqrt.f32(float 2.000000e+00)
  %21 = fneg nsz float %20
  %22 = load ptr, ptr %3, align 8, !tbaa !22
  %23 = getelementptr inbounds nuw %struct.BilateralContext, ptr %22, i32 0, i32 1
  %24 = load float, ptr %23, align 8, !tbaa !100
  %25 = fdiv nsz float %21, %24
  %26 = call nsz float @llvm.exp.f32(float %25)
  %27 = load ptr, ptr %3, align 8, !tbaa !22
  %28 = getelementptr inbounds nuw %struct.BilateralContext, ptr %27, i32 0, i32 9
  store float %26, ptr %28, align 8, !tbaa !70
  call void @llvm.lifetime.start.p0(i64 4, ptr %5) #8
  store i32 0, ptr %5, align 4, !tbaa !24
  br label %29

29:                                               ; preds = %53, %1
  %30 = load i32, ptr %5, align 4, !tbaa !24
  %31 = load ptr, ptr %3, align 8, !tbaa !22
  %32 = getelementptr inbounds nuw %struct.BilateralContext, ptr %31, i32 0, i32 6
  %33 = load i32, ptr %32, align 4, !tbaa !55
  %34 = shl i32 1, %33
  %35 = icmp slt i32 %30, %34
  br i1 %35, label %37, label %36

36:                                               ; preds = %29
  call void @llvm.lifetime.end.p0(i64 4, ptr %5) #8
  br label %56

37:                                               ; preds = %29
  %38 = load ptr, ptr %3, align 8, !tbaa !22
  %39 = getelementptr inbounds nuw %struct.BilateralContext, ptr %38, i32 0, i32 9
  %40 = load float, ptr %39, align 8, !tbaa !70
  %41 = load i32, ptr %5, align 4, !tbaa !24
  %42 = sub nsw i32 0, %41
  %43 = sitofp i32 %42 to float
  %44 = load float, ptr %4, align 4, !tbaa !71
  %45 = fmul nsz float %43, %44
  %46 = call nsz float @llvm.exp.f32(float %45)
  %47 = fmul nsz float %40, %46
  %48 = load ptr, ptr %3, align 8, !tbaa !22
  %49 = getelementptr inbounds nuw %struct.BilateralContext, ptr %48, i32 0, i32 10
  %50 = load i32, ptr %5, align 4, !tbaa !24
  %51 = sext i32 %50 to i64
  %52 = getelementptr inbounds [65536 x float], ptr %49, i64 0, i64 %51
  store float %47, ptr %52, align 4, !tbaa !71
  br label %53

53:                                               ; preds = %37
  %54 = load i32, ptr %5, align 4, !tbaa !24
  %55 = add nsw i32 %54, 1
  store i32 %55, ptr %5, align 4, !tbaa !24
  br label %29, !llvm.loop !101

56:                                               ; preds = %36
  call void @llvm.lifetime.end.p0(i64 4, ptr %4) #8
  call void @llvm.lifetime.end.p0(i64 8, ptr %3) #8
  ret i32 0
}

; Function Attrs: nounwind uwtable
define internal i32 @process_command(ptr noundef %0, ptr noundef %1, ptr noundef %2, ptr noundef %3, i32 noundef %4, i32 noundef %5) #1 {
  %7 = alloca i32, align 4
  %8 = alloca ptr, align 8
  %9 = alloca ptr, align 8
  %10 = alloca ptr, align 8
  %11 = alloca ptr, align 8
  %12 = alloca i32, align 4
  %13 = alloca i32, align 4
  %14 = alloca i32, align 4
  %15 = alloca i32, align 4
  store ptr %0, ptr %8, align 8, !tbaa !4
  store ptr %1, ptr %9, align 8, !tbaa !30
  store ptr %2, ptr %10, align 8, !tbaa !30
  store ptr %3, ptr %11, align 8, !tbaa !30
  store i32 %4, ptr %12, align 4, !tbaa !24
  store i32 %5, ptr %13, align 4, !tbaa !24
  call void @llvm.lifetime.start.p0(i64 4, ptr %14) #8
  %16 = load ptr, ptr %8, align 8, !tbaa !4
  %17 = load ptr, ptr %9, align 8, !tbaa !30
  %18 = load ptr, ptr %10, align 8, !tbaa !30
  %19 = load ptr, ptr %11, align 8, !tbaa !30
  %20 = load i32, ptr %12, align 4, !tbaa !24
  %21 = load i32, ptr %13, align 4, !tbaa !24
  %22 = call i32 @ff_filter_process_command(ptr noundef %16, ptr noundef %17, ptr noundef %18, ptr noundef %19, i32 noundef %20, i32 noundef %21)
  store i32 %22, ptr %14, align 4, !tbaa !24
  %23 = load i32, ptr %14, align 4, !tbaa !24
  %24 = icmp slt i32 %23, 0
  br i1 %24, label %25, label %27

25:                                               ; preds = %6
  %26 = load i32, ptr %14, align 4, !tbaa !24
  store i32 %26, ptr %7, align 4
  store i32 1, ptr %15, align 4
  br label %30

27:                                               ; preds = %6
  %28 = load ptr, ptr %8, align 8, !tbaa !4
  %29 = call i32 @config_params(ptr noundef %28)
  store i32 %29, ptr %7, align 4
  store i32 1, ptr %15, align 4
  br label %30

30:                                               ; preds = %27, %25
  call void @llvm.lifetime.end.p0(i64 4, ptr %14) #8
  %31 = load i32, ptr %7, align 4
  ret i32 %31
}