; Function Attrs: nounwind uwtable
define internal range(i32 -2147483648, 1) i32 @process_command(ptr noundef %0, ptr noundef %1, ptr noundef %2, ptr noundef %3, i32 noundef %4, i32 noundef %5) #1 {
  %7 = tail call i32 @ff_filter_process_command(ptr noundef %0, ptr noundef %1, ptr noundef %2, ptr noundef %3, i32 noundef %4, i32 noundef %5) #8
  %8 = icmp slt i32 %7, 0
  br i1 %8, label %config_params.exit, label %9

9:                                                ; preds = %6
  %10 = getelementptr i8, ptr %0, i64 72
  %.val = load ptr, ptr %10, align 8, !tbaa !4
  %11 = getelementptr inbounds nuw i8, ptr %.val, i64 12
  %12 = load float, ptr %11, align 4, !tbaa !25
  %13 = getelementptr inbounds nuw i8, ptr %.val, i64 28
  %14 = load i32, ptr %13, align 4, !tbaa !26
  %notmask.i = shl nsw i32 -1, %14
  %15 = xor i32 %notmask.i, -1
  %16 = uitofp nneg i32 %15 to float
  %17 = fmul nsz float %12, %16
  %18 = fdiv nsz float 1.000000e+00, %17
  %19 = getelementptr inbounds nuw i8, ptr %.val, i64 8
  %20 = load float, ptr %19, align 8, !tbaa !27
  %21 = fdiv nsz float 0xBFF6A09E60000000, %20
  %22 = tail call nsz float @llvm.exp.f32(float %21)
  %23 = getelementptr inbounds nuw i8, ptr %.val, i64 64
  store float %22, ptr %23, align 8, !tbaa !28
  %.not.i = icmp eq i32 %14, 31
  br i1 %.not.i, label %config_params.exit, label %.lr.ph.i

.lr.ph.i:                                         ; preds = %9
  %24 = shl nuw nsw i32 1, %14
  %25 = getelementptr inbounds nuw i8, ptr %.val, i64 68
  %wide.trip.count.i = zext nneg i32 %24 to i64
  br label %26

26:                                               ; preds = %26, %.lr.ph.i
  %indvars.iv.i = phi i64 [ 0, %.lr.ph.i ], [ %indvars.iv.next.i, %26 ]
  %27 = trunc i64 %indvars.iv.i to i32
  %28 = sub i32 0, %27
  %29 = sitofp i32 %28 to float
  %30 = fmul nsz float %18, %29
  %31 = tail call nsz float @llvm.exp.f32(float %30)
  %32 = fmul nsz float %22, %31
  %33 = getelementptr inbounds nuw [65536 x float], ptr %25, i64 0, i64 %indvars.iv.i
  store float %32, ptr %33, align 4, !tbaa !29
  %indvars.iv.next.i = add nuw nsw i64 %indvars.iv.i, 1
  %exitcond.not.i = icmp eq i64 %indvars.iv.next.i, %wide.trip.count.i
  br i1 %exitcond.not.i, label %config_params.exit, label %26, !llvm.loop !30

config_params.exit:                               ; preds = %26, %9, %6
  %.0 = phi i32 [ %7, %6 ], [ 0, %9 ], [ 0, %26 ]
  ret i32 %.0
}